; Function Attrs: nofree norecurse nosync nounwind memory(argmem: read) uwtable
define dso_local ptr @last_dir_separator(ptr noundef readonly captures(ret: address, provenance) %0) local_unnamed_addr #1 {
  br label %2

2:                                                ; preds = %5, %1
  %.06 = phi ptr [ null, %1 ], [ %.1, %5 ]
  %.0 = phi ptr [ %0, %1 ], [ %6, %5 ]
  %3 = load i8, ptr %.0, align 1
  switch i8 %3, label %5 [
    i8 0, label %7
    i8 47, label %4
  ]

4:                                                ; preds = %2
  br label %5

5:                                                ; preds = %2, %4
  %.1 = phi ptr [ %.0, %4 ], [ %.06, %2 ]
  %6 = getelementptr inbounds nuw i8, ptr %.0, i64 1
  br label %2, !llvm.loop !7

7:                                                ; preds = %2
  ret ptr %.06
}